target datalayout = "e-m:e-p270:32:32-p271:32:32-p272:64:64-i64:64-i128:128-f80:128-n8:16:32:64-S128"
target triple = "x86_64-pc-linux-gnu"

@.str.1 = private unnamed_addr constant [11 x i8] c"miscinit.c\00", align 1
@CurrentUserId = internal global i32 0, align 4
@SecurityRestrictionContext = internal global i32 0, align 4
@.str.30 = private unnamed_addr constant [63 x i8] c"cannot set parameter \22%s\22 within security-restricted operation\00", align 1
@.str.31 = private unnamed_addr constant [5 x i8] c"role\00", align 1
@__func__.SetUserIdAndContext = private unnamed_addr constant [20 x i8] c"SetUserIdAndContext\00", align 1

; Function Attrs: nounwind uwtable
define dso_local zeroext i1 @InSecurityRestrictedOperation() #0 {
  %1 = load i32, ptr @SecurityRestrictionContext, align 4
  %2 = and i32 %1, 2
  %3 = icmp ne i32 %2, 0
  ret i1 %3
}

; Function Attrs: nounwind uwtable
define dso_local void @SetUserIdAndContext(i32 noundef %0, i1 noundef zeroext %1) #0 {
  %3 = alloca i32, align 4
  %4 = alloca i8, align 1
  store i32 %0, ptr %3, align 4
  %5 = zext i1 %1 to i8
  store i8 %5, ptr %4, align 1
  %6 = call zeroext i1 @InSecurityRestrictedOperation()
  br i1 %6, label %7, label %18

7:                                                ; preds = %2
  br label %8

8:                                                ; preds = %7
  br i1 true, label %9, label %11

9:                                                ; preds = %8
  %10 = call zeroext i1 @errstart_cold(i32 noundef 21, ptr noundef null) #13
  br i1 %10, label %13, label %16

11:                                               ; preds = %8
  %12 = call zeroext i1 @errstart(i32 noundef 21, ptr noundef null)
  br i1 %12, label %13, label %16

13:                                               ; preds = %11, %9
  %14 = call i32 @errcode(i32 noundef 16797828)
  %15 = call i32 (ptr, ...) @errmsg(ptr noundef @.str.30, ptr noundef @.str.31)
  call void @errfinish(ptr noundef @.str.1, i32 noundef 723, ptr noundef @__func__.SetUserIdAndContext)
  br label %16

16:                                               ; preds = %13, %11, %9
  unreachable

17:                                               ; No predecessors!
  br label %18

18:                                               ; preds = %17, %2
  %19 = load i32, ptr %3, align 4
  store i32 %19, ptr @CurrentUserId, align 4
  %20 = load i8, ptr %4, align 1, !range !4, !noundef !5
  %21 = trunc i8 %20 to i1
  br i1 %21, label %22, label %25

22:                                               ; preds = %18
  %23 = load i32, ptr @SecurityRestrictionContext, align 4
  %24 = or i32 %23, 1
  store i32 %24, ptr @SecurityRestrictionContext, align 4
  br label %28

25:                                               ; preds = %18
  %26 = load i32, ptr @SecurityRestrictionContext, align 4
  %27 = and i32 %26, -2
  store i32 %27, ptr @SecurityRestrictionContext, align 4
  br label %28

28:                                               ; preds = %25, %22
  ret void
}