; Function Attrs: nounwind uwtable
define dso_local void @SetUserIdAndContext(i32 noundef %0, i1 noundef zeroext %1) local_unnamed_addr #0 {
  %3 = load i32, ptr @SecurityRestrictionContext, align 4
  %4 = and i32 %3, 2
  %.not = icmp eq i32 %4, 0
  br i1 %.not, label %9, label %5

5:                                                ; preds = %2
  %6 = tail call zeroext i1 @errstart_cold(i32 noundef 21, ptr noundef null) #23
  tail call void @llvm.assume(i1 %6)
  %7 = tail call i32 @errcode(i32 noundef 16797828) #22
  %8 = tail call i32 (ptr, ...) @errmsg(ptr noundef nonnull @.str.30, ptr noundef nonnull @.str.31) #22
  tail call void @errfinish(ptr noundef nonnull @.str.1, i32 noundef 723, ptr noundef nonnull @__func__.SetUserIdAndContext) #22
  unreachable

9:                                                ; preds = %2
  store i32 %0, ptr @CurrentUserId, align 4
  %10 = and i32 %3, -4
  %11 = or i32 %3, 1
  %storemerge = select i1 %1, i32 %11, i32 %10
  store i32 %storemerge, ptr @SecurityRestrictionContext, align 4
  ret void
}